target datalayout = "e-m:e-p270:32:32-p271:32:32-p272:64:64-i64:64-i128:128-f80:128-n8:16:32:64-S128"
target triple = "x86_64-pc-linux-gnu"

%struct.s_chastore = type { ptr, ptr, i64, i64, ptr, ptr, i64 }
%struct.s_chanode = type { ptr, i64 }

; Function Attrs: nounwind uwtable
define dso_local ptr @xdl_cha_alloc(ptr noundef %0) #0 {
  %2 = alloca ptr, align 8
  %3 = alloca ptr, align 8
  %4 = alloca ptr, align 8
  %5 = alloca ptr, align 8
  %6 = alloca i32, align 4
  store ptr %0, ptr %3, align 8, !tbaa !31
  call void @llvm.lifetime.start.p0(i64 8, ptr %4) #6
  call void @llvm.lifetime.start.p0(i64 8, ptr %5) #6
  %7 = load ptr, ptr %3, align 8, !tbaa !31
  %8 = getelementptr inbounds nuw %struct.s_chastore, ptr %7, i32 0, i32 4
  %9 = load ptr, ptr %8, align 8, !tbaa !40
  store ptr %9, ptr %4, align 8, !tbaa !42
  %10 = icmp ne ptr %9, null
  br i1 %10, label %11, label %19

11:                                               ; preds = %1
  %12 = load ptr, ptr %4, align 8, !tbaa !42
  %13 = getelementptr inbounds nuw %struct.s_chanode, ptr %12, i32 0, i32 1
  %14 = load i64, ptr %13, align 8, !tbaa !46
  %15 = load ptr, ptr %3, align 8, !tbaa !31
  %16 = getelementptr inbounds nuw %struct.s_chastore, ptr %15, i32 0, i32 3
  %17 = load i64, ptr %16, align 8, !tbaa !38
  %18 = icmp eq i64 %14, %17
  br i1 %18, label %19, label %58

19:                                               ; preds = %11, %1
  %20 = load ptr, ptr %3, align 8, !tbaa !31
  %21 = getelementptr inbounds nuw %struct.s_chastore, ptr %20, i32 0, i32 3
  %22 = load i64, ptr %21, align 8, !tbaa !38
  %23 = add i64 16, %22
  %24 = call ptr @xmalloc(i64 noundef %23)
  store ptr %24, ptr %4, align 8, !tbaa !42
  %25 = icmp ne ptr %24, null
  br i1 %25, label %27, label %26

26:                                               ; preds = %19
  store ptr null, ptr %2, align 8
  store i32 1, ptr %6, align 4
  br label %73

27:                                               ; preds = %19
  %28 = load ptr, ptr %4, align 8, !tbaa !42
  %29 = getelementptr inbounds nuw %struct.s_chanode, ptr %28, i32 0, i32 1
  store i64 0, ptr %29, align 8, !tbaa !46
  %30 = load ptr, ptr %4, align 8, !tbaa !42
  %31 = getelementptr inbounds nuw %struct.s_chanode, ptr %30, i32 0, i32 0
  store ptr null, ptr %31, align 8, !tbaa !43
  %32 = load ptr, ptr %3, align 8, !tbaa !31
  %33 = getelementptr inbounds nuw %struct.s_chastore, ptr %32, i32 0, i32 1
  %34 = load ptr, ptr %33, align 8, !tbaa !33
  %35 = icmp ne ptr %34, null
  br i1 %35, label %36, label %42

36:                                               ; preds = %27
  %37 = load ptr, ptr %4, align 8, !tbaa !42
  %38 = load ptr, ptr %3, align 8, !tbaa !31
  %39 = getelementptr inbounds nuw %struct.s_chastore, ptr %38, i32 0, i32 1
  %40 = load ptr, ptr %39, align 8, !tbaa !33
  %41 = getelementptr inbounds nuw %struct.s_chanode, ptr %40, i32 0, i32 0
  store ptr %37, ptr %41, align 8, !tbaa !43
  br label %42

42:                                               ; preds = %36, %27
  %43 = load ptr, ptr %3, align 8, !tbaa !31
  %44 = getelementptr inbounds nuw %struct.s_chastore, ptr %43, i32 0, i32 0
  %45 = load ptr, ptr %44, align 8, !tbaa !36
  %46 = icmp ne ptr %45, null
  br i1 %46, label %51, label %47

47:                                               ; preds = %42
  %48 = load ptr, ptr %4, align 8, !tbaa !42
  %49 = load ptr, ptr %3, align 8, !tbaa !31
  %50 = getelementptr inbounds nuw %struct.s_chastore, ptr %49, i32 0, i32 0
  store ptr %48, ptr %50, align 8, !tbaa !36
  br label %51

51:                                               ; preds = %47, %42
  %52 = load ptr, ptr %4, align 8, !tbaa !42
  %53 = load ptr, ptr %3, align 8, !tbaa !31
  %54 = getelementptr inbounds nuw %struct.s_chastore, ptr %53, i32 0, i32 1
  store ptr %52, ptr %54, align 8, !tbaa !33
  %55 = load ptr, ptr %4, align 8, !tbaa !42
  %56 = load ptr, ptr %3, align 8, !tbaa !31
  %57 = getelementptr inbounds nuw %struct.s_chastore, ptr %56, i32 0, i32 4
  store ptr %55, ptr %57, align 8, !tbaa !40
  br label %58

58:                                               ; preds = %51, %11
  %59 = load ptr, ptr %4, align 8, !tbaa !42
  %60 = getelementptr inbounds nuw i8, ptr %59, i64 16
  %61 = load ptr, ptr %4, align 8, !tbaa !42
  %62 = getelementptr inbounds nuw %struct.s_chanode, ptr %61, i32 0, i32 1
  %63 = load i64, ptr %62, align 8, !tbaa !46
  %64 = getelementptr inbounds i8, ptr %60, i64 %63
  store ptr %64, ptr %5, align 8, !tbaa !47
  %65 = load ptr, ptr %3, align 8, !tbaa !31
  %66 = getelementptr inbounds nuw %struct.s_chastore, ptr %65, i32 0, i32 2
  %67 = load i64, ptr %66, align 8, !tbaa !37
  %68 = load ptr, ptr %4, align 8, !tbaa !42
  %69 = getelementptr inbounds nuw %struct.s_chanode, ptr %68, i32 0, i32 1
  %70 = load i64, ptr %69, align 8, !tbaa !46
  %71 = add nsw i64 %70, %67
  store i64 %71, ptr %69, align 8, !tbaa !46
  %72 = load ptr, ptr %5, align 8, !tbaa !47
  store ptr %72, ptr %2, align 8
  store i32 1, ptr %6, align 4
  br label %73

73:                                               ; preds = %58, %26
  call void @llvm.lifetime.end.p0(i64 8, ptr %5) #6
  call void @llvm.lifetime.end.p0(i64 8, ptr %4) #6
  %74 = load ptr, ptr %2, align 8
  ret ptr %74
}