; Function Attrs: nounwind uwtable
define dso_local ptr @xdl_cha_alloc(ptr noundef captures(none) %0) local_unnamed_addr #2 {
  %2 = getelementptr inbounds nuw i8, ptr %0, i64 32
  %3 = load ptr, ptr %2, align 8, !tbaa !30
  %.not = icmp eq ptr %3, null
  br i1 %.not, label %._crit_edge, label %4

._crit_edge:                                      ; preds = %1
  %.phi.trans.insert = getelementptr inbounds nuw i8, ptr %0, i64 24
  %.pre = load i64, ptr %.phi.trans.insert, align 8, !tbaa !25
  br label %10

4:                                                ; preds = %1
  %5 = getelementptr inbounds nuw i8, ptr %3, i64 8
  %6 = load i64, ptr %5, align 8, !tbaa !31
  %7 = getelementptr inbounds nuw i8, ptr %0, i64 24
  %8 = load i64, ptr %7, align 8, !tbaa !25
  %9 = icmp eq i64 %6, %8
  br i1 %9, label %10, label %22

10:                                               ; preds = %._crit_edge, %4
  %11 = phi i64 [ %.pre, %._crit_edge ], [ %6, %4 ]
  %12 = add i64 %11, 16
  %13 = tail call ptr @xmalloc(i64 noundef %12) #18
  %.not26 = icmp eq ptr %13, null
  br i1 %.not26, label %30, label %14

14:                                               ; preds = %10
  %15 = getelementptr inbounds nuw i8, ptr %0, i64 8
  tail call void @llvm.memset.p0.i64(ptr noundef nonnull align 8 dereferenceable(16) %13, i8 0, i64 16, i1 false)
  %16 = load ptr, ptr %15, align 8, !tbaa !32
  %.not27 = icmp eq ptr %16, null
  br i1 %.not27, label %18, label %17

17:                                               ; preds = %14
  store ptr %13, ptr %16, align 8, !tbaa !27
  br label %18

18:                                               ; preds = %17, %14
  %19 = load ptr, ptr %0, align 8, !tbaa !26
  %.not28 = icmp eq ptr %19, null
  br i1 %.not28, label %20, label %21

20:                                               ; preds = %18
  store ptr %13, ptr %0, align 8, !tbaa !26
  br label %21

21:                                               ; preds = %20, %18
  store ptr %13, ptr %15, align 8, !tbaa !32
  store ptr %13, ptr %2, align 8, !tbaa !30
  br label %22

22:                                               ; preds = %21, %4
  %23 = phi i64 [ 0, %21 ], [ %6, %4 ]
  %.022 = phi ptr [ %13, %21 ], [ %3, %4 ]
  %24 = getelementptr inbounds nuw i8, ptr %.022, i64 16
  %25 = getelementptr inbounds nuw i8, ptr %.022, i64 8
  %26 = getelementptr inbounds i8, ptr %24, i64 %23
  %27 = getelementptr inbounds nuw i8, ptr %0, i64 16
  %28 = load i64, ptr %27, align 8, !tbaa !22
  %29 = add nsw i64 %28, %23
  store i64 %29, ptr %25, align 8, !tbaa !31
  br label %30

30:                                               ; preds = %10, %22
  %.0 = phi ptr [ %26, %22 ], [ null, %10 ]
  ret ptr %.0
}